; Function Attrs: mustprogress uwtable
define void @_ZN10open_spiel10algorithms8ToStringB5cxx11ERKSt6vectorISt4pairIdNS_13TabularPolicyEESaIS4_EE(ptr dead_on_unwind noalias nonnull writable sret(%"class.std::__cxx11::basic_string") align 8 %0, ptr noundef nonnull readonly align 8 captures(none) dereferenceable(24) %1) local_unnamed_addr #3 personality ptr @__gxx_personality_v0 {
  %3 = alloca %"class.absl::debian2::AlphaNum", align 8
  %4 = alloca %"class.absl::debian2::AlphaNum", align 8
  %5 = alloca %"class.absl::debian2::AlphaNum", align 8
  %6 = alloca %"class.absl::debian2::AlphaNum", align 8
  %7 = alloca %"class.std::__cxx11::basic_string", align 8
  %8 = alloca %"class.absl::debian2::AlphaNum", align 8
  tail call void @_ZNSt7__cxx1112basic_stringIcSt11char_traitsIcESaIcEEC1Ev(ptr noundef nonnull align 8 dereferenceable(32) %0) #25
  %9 = load ptr, ptr %1, align 8
  %10 = getelementptr inbounds nuw i8, ptr %1, i64 8
  %11 = load ptr, ptr %10, align 8
  %.not14 = icmp eq ptr %9, %11
  br i1 %.not14, label %._crit_edge, label %.lr.ph

.lr.ph:                                           ; preds = %2
  %12 = getelementptr inbounds nuw i8, ptr %3, i64 8
  %13 = getelementptr inbounds nuw i8, ptr %4, i64 16
  %14 = getelementptr inbounds nuw i8, ptr %4, i64 8
  %15 = getelementptr inbounds nuw i8, ptr %5, i64 8
  %16 = getelementptr inbounds nuw i8, ptr %6, i64 8
  %17 = getelementptr inbounds nuw i8, ptr %8, i64 8
  br label %18

18:                                               ; preds = %.lr.ph, %32
  %.sroa.011.015 = phi ptr [ %9, %.lr.ph ], [ %33, %32 ]
  store ptr @.str, ptr %3, align 8
  store i64 6, ptr %12, align 8
  %19 = load double, ptr %.sroa.011.015, align 8
  %20 = invoke noundef i64 @_ZN4absl7debian216numbers_internal17SixDigitsToBufferEdPc(double noundef %19, ptr noundef nonnull %13)
          to label %.noexc unwind label %34

.noexc:                                           ; preds = %18
  store ptr %13, ptr %4, align 8
  %21 = icmp sgt i64 %20, -1
  br i1 %21, label %23, label %22

22:                                               ; preds = %.noexc
  call void @llvm.trap()
  unreachable

23:                                               ; preds = %.noexc
  store i64 %20, ptr %14, align 8
  store ptr @.str.1, ptr %5, align 8
  store i64 1, ptr %15, align 8
  invoke void @_ZN4absl7debian29StrAppendEPNSt7__cxx1112basic_stringIcSt11char_traitsIcESaIcEEERKNS0_8AlphaNumESA_SA_(ptr noundef nonnull %0, ptr noundef nonnull align 8 dereferenceable(48) %3, ptr noundef nonnull align 8 dereferenceable(48) %4, ptr noundef nonnull align 8 dereferenceable(48) %5)
          to label %24 unwind label %34

24:                                               ; preds = %23
  %25 = getelementptr inbounds nuw i8, ptr %.sroa.011.015, i64 8
  invoke void @_ZNK10open_spiel13TabularPolicy14ToStringSortedB5cxx11Ev(ptr dead_on_unwind nonnull writable sret(%"class.std::__cxx11::basic_string") align 8 %7, ptr noundef nonnull align 8 dereferenceable(64) %25)
          to label %26 unwind label %34

26:                                               ; preds = %24
  %27 = call noundef ptr @_ZNKSt7__cxx1112basic_stringIcSt11char_traitsIcESaIcEE4dataEv(ptr noundef nonnull align 8 dereferenceable(32) %7) #25
  %28 = call noundef i64 @_ZNKSt7__cxx1112basic_stringIcSt11char_traitsIcESaIcEE4sizeEv(ptr noundef nonnull align 8 dereferenceable(32) %7) #25
  store ptr %27, ptr %6, align 8
  %29 = icmp sgt i64 %28, -1
  br i1 %29, label %31, label %30

30:                                               ; preds = %26
  call void @llvm.trap()
  unreachable

31:                                               ; preds = %26
  store i64 %28, ptr %16, align 8
  store ptr @.str.1, ptr %8, align 8
  store i64 1, ptr %17, align 8
  invoke void @_ZN4absl7debian29StrAppendEPNSt7__cxx1112basic_stringIcSt11char_traitsIcESaIcEEERKNS0_8AlphaNumESA_(ptr noundef nonnull %0, ptr noundef nonnull align 8 dereferenceable(48) %6, ptr noundef nonnull align 8 dereferenceable(48) %8)
          to label %32 unwind label %36

32:                                               ; preds = %31
  call void @_ZNSt7__cxx1112basic_stringIcSt11char_traitsIcESaIcEED1Ev(ptr noundef nonnull align 8 dereferenceable(32) %7) #25
  %33 = getelementptr inbounds nuw i8, ptr %.sroa.011.015, i64 72
  %.not = icmp eq ptr %33, %11
  br i1 %.not, label %._crit_edge, label %18

34:                                               ; preds = %18, %24, %23
  %35 = landingpad { ptr, i32 }
          cleanup
  br label %38

36:                                               ; preds = %31
  %37 = landingpad { ptr, i32 }
          cleanup
  call void @_ZNSt7__cxx1112basic_stringIcSt11char_traitsIcESaIcEED1Ev(ptr noundef nonnull align 8 dereferenceable(32) %7) #25
  br label %38

._crit_edge:                                      ; preds = %32, %2
  ret void

38:                                               ; preds = %36, %34
  %.pn = phi { ptr, i32 } [ %37, %36 ], [ %35, %34 ]
  call void @_ZNSt7__cxx1112basic_stringIcSt11char_traitsIcESaIcEED1Ev(ptr noundef nonnull align 8 dereferenceable(32) %0) #25
  resume { ptr, i32 } %.pn
}